ccopy_reg
_reconstructor
p0
(ctrueskill
TrueSkill
p1
c__builtin__
object
p2
Ntp3
Rp4
(dp5
S'tau'
p6
F0.08333333333333334
sS'cdf'
p7
ctrueskill.backends
cdf
p8
sS'ppf'
p9
ctrueskill.backends
ppf
p10
sS'mu'
p11
F25.0
sS'beta'
p12
F4.166666666666667
sS'draw_probability'
p13
F0.1
sS'pdf'
p14
ctrueskill.backends
pdf
p15
sS'sigma'
p16
F8.333333333333334
sS'backend'
p17
Nsb.